target datalayout = "e-m:e-p270:32:32-p271:32:32-p272:64:64-i64:64-i128:128-f80:128-n8:16:32:64-S128"
target triple = "x86_64-unknown-linux-gnu"

%"class.pbrt::Point2.100" = type { %"class.pbrt::Tuple2.101" }
%"class.pbrt::Tuple2.101" = type { float, float }
%"class.pbrt::Vector2.228" = type { %"class.pbrt::Tuple2.229" }
%"class.pbrt::Tuple2.229" = type { float, float }

; Function Attrs: mustprogress nounwind uwtable
define linkonce_odr dso_local noundef float @_ZN4pbrt3SqrIfEET_S1_(float noundef %v) #2 comdat {
entry:
  %v.addr = alloca float, align 4
  store float %v, ptr %v.addr, align 4
  %0 = load float, ptr %v.addr, align 4
  %1 = load float, ptr %v.addr, align 4
  %mul = fmul float %0, %1
  ret float %mul
}

; Function Attrs: mustprogress nounwind uwtable
define linkonce_odr dso_local void @_ZN4pbrt6Tuple2INS_7Vector2EfEC2Eff(ptr noundef nonnull align 4 dereferenceable(8) %this, float noundef %x, float noundef %y) unnamed_addr #2 comdat align 2 {
entry:
  %this.addr = alloca ptr, align 8
  %x.addr = alloca float, align 4
  %y.addr = alloca float, align 4
  store ptr %this, ptr %this.addr, align 8
  store float %x, ptr %x.addr, align 4
  store float %y, ptr %y.addr, align 4
  %this1 = load ptr, ptr %this.addr, align 8
  %x2 = getelementptr inbounds %"class.pbrt::Tuple2.229", ptr %this1, i32 0, i32 0
  %0 = load float, ptr %x.addr, align 4
  store float %0, ptr %x2, align 4
  %y3 = getelementptr inbounds %"class.pbrt::Tuple2.229", ptr %this1, i32 0, i32 1
  %1 = load float, ptr %y.addr, align 4
  store float %1, ptr %y3, align 4
  br label %do.body

do.body:                                          ; preds = %entry
  br label %do.end

do.end:                                           ; preds = %do.body
  ret void
}

; Function Attrs: mustprogress nounwind uwtable
define linkonce_odr dso_local noundef float @_ZSt4sqrtf(float noundef %__x) #2 comdat {
entry:
  %__x.addr = alloca float, align 4
  store float %__x, ptr %__x.addr, align 4
  %0 = load float, ptr %__x.addr, align 4
  %call = call float @sqrtf(float noundef %0) #14
  ret float %call
}

; Function Attrs: mustprogress uwtable
define linkonce_odr dso_local noundef float @_ZN4pbrt13LengthSquaredIfEENS_12_GLOBAL__N_111TupleLengthIT_E4typeENS_7Vector2IS3_EE(<2 x float> %v.coerce) #8 comdat {
entry:
  %v = alloca %"class.pbrt::Vector2.228", align 4
  %coerce.dive = getelementptr inbounds %"class.pbrt::Vector2.228", ptr %v, i32 0, i32 0
  store <2 x float> %v.coerce, ptr %coerce.dive, align 4
  %x = getelementptr inbounds %"class.pbrt::Tuple2.229", ptr %v, i32 0, i32 0
  %0 = load float, ptr %x, align 4
  %call = call noundef float @_ZN4pbrt3SqrIfEET_S1_(float noundef %0)
  %y = getelementptr inbounds %"class.pbrt::Tuple2.229", ptr %v, i32 0, i32 1
  %1 = load float, ptr %y, align 4
  %call1 = call noundef float @_ZN4pbrt3SqrIfEET_S1_(float noundef %1)
  %add = fadd float %call, %call1
  ret float %add
}

; Function Attrs: mustprogress nounwind uwtable
define linkonce_odr dso_local void @_ZN4pbrt7Vector2IfEC2Eff(ptr noundef nonnull align 4 dereferenceable(8) %this, float noundef %x, float noundef %y) unnamed_addr #2 comdat align 2 {
entry:
  %this.addr = alloca ptr, align 8
  %x.addr = alloca float, align 4
  %y.addr = alloca float, align 4
  store ptr %this, ptr %this.addr, align 8
  store float %x, ptr %x.addr, align 4
  store float %y, ptr %y.addr, align 4
  %this1 = load ptr, ptr %this.addr, align 8
  %0 = load float, ptr %x.addr, align 4
  %1 = load float, ptr %y.addr, align 4
  call void @_ZN4pbrt6Tuple2INS_7Vector2EfEC2Eff(ptr noundef nonnull align 4 dereferenceable(8) %this1, float noundef %0, float noundef %1)
  ret void
}

; Function Attrs: mustprogress uwtable
define linkonce_odr dso_local noundef float @_ZN4pbrt6LengthIfEENS_12_GLOBAL__N_111TupleLengthIT_E4typeENS_7Vector2IS3_EE(<2 x float> %v.coerce) #8 comdat {
entry:
  %v = alloca %"class.pbrt::Vector2.228", align 4
  %agg.tmp = alloca %"class.pbrt::Vector2.228", align 4
  %coerce.dive = getelementptr inbounds %"class.pbrt::Vector2.228", ptr %v, i32 0, i32 0
  store <2 x float> %v.coerce, ptr %coerce.dive, align 4
  call void @llvm.memcpy.p0.p0.i64(ptr align 4 %agg.tmp, ptr align 4 %v, i64 8, i1 false)
  %coerce.dive1 = getelementptr inbounds %"class.pbrt::Vector2.228", ptr %agg.tmp, i32 0, i32 0
  %0 = load <2 x float>, ptr %coerce.dive1, align 4
  %call = call noundef float @_ZN4pbrt13LengthSquaredIfEENS_12_GLOBAL__N_111TupleLengthIT_E4typeENS_7Vector2IS3_EE(<2 x float> %0)
  %call2 = call noundef float @_ZSt4sqrtf(float noundef %call)
  ret float %call2
}

; Function Attrs: mustprogress uwtable
define linkonce_odr dso_local <2 x float> @_ZNK4pbrt6Point2IfEmiIfEENS_7Vector2IDTmitlfEtlT_EEEENS0_IS4_EE(ptr noundef nonnull align 4 dereferenceable(8) %this, <2 x float> %p.coerce) #8 comdat align 2 {
entry:
  %retval = alloca %"class.pbrt::Vector2.228", align 4
  %p = alloca %"class.pbrt::Point2.100", align 4
  %this.addr = alloca ptr, align 8
  %coerce.dive = getelementptr inbounds %"class.pbrt::Point2.100", ptr %p, i32 0, i32 0
  store <2 x float> %p.coerce, ptr %coerce.dive, align 4
  store ptr %this, ptr %this.addr, align 8
  %this1 = load ptr, ptr %this.addr, align 8
  br label %do.body

do.body:                                          ; preds = %entry
  br label %do.end

do.end:                                           ; preds = %do.body
  %x = getelementptr inbounds %"class.pbrt::Tuple2.101", ptr %this1, i32 0, i32 0
  %0 = load float, ptr %x, align 4
  %x2 = getelementptr inbounds %"class.pbrt::Tuple2.101", ptr %p, i32 0, i32 0
  %1 = load float, ptr %x2, align 4
  %sub = fsub float %0, %1
  %y = getelementptr inbounds %"class.pbrt::Tuple2.101", ptr %this1, i32 0, i32 1
  %2 = load float, ptr %y, align 4
  %y3 = getelementptr inbounds %"class.pbrt::Tuple2.101", ptr %p, i32 0, i32 1
  %3 = load float, ptr %y3, align 4
  %sub4 = fsub float %2, %3
  call void @_ZN4pbrt7Vector2IfEC2Eff(ptr noundef nonnull align 4 dereferenceable(8) %retval, float noundef %sub, float noundef %sub4)
  %coerce.dive5 = getelementptr inbounds %"class.pbrt::Vector2.228", ptr %retval, i32 0, i32 0
  %4 = load <2 x float>, ptr %coerce.dive5, align 4
  ret <2 x float> %4
}

; Function Attrs: mustprogress nounwind uwtable
define linkonce_odr dso_local void @_ZN4pbrt6Tuple2INS_6Point2EfEC2Eff(ptr noundef nonnull align 4 dereferenceable(8) %this, float noundef %x, float noundef %y) unnamed_addr #2 comdat align 2 {
entry:
  %this.addr = alloca ptr, align 8
  %x.addr = alloca float, align 4
  %y.addr = alloca float, align 4
  store ptr %this, ptr %this.addr, align 8
  store float %x, ptr %x.addr, align 4
  store float %y, ptr %y.addr, align 4
  %this1 = load ptr, ptr %this.addr, align 8
  %x2 = getelementptr inbounds %"class.pbrt::Tuple2.101", ptr %this1, i32 0, i32 0
  %0 = load float, ptr %x.addr, align 4
  store float %0, ptr %x2, align 4
  %y3 = getelementptr inbounds %"class.pbrt::Tuple2.101", ptr %this1, i32 0, i32 1
  %1 = load float, ptr %y.addr, align 4
  store float %1, ptr %y3, align 4
  br label %do.body

do.body:                                          ; preds = %entry
  br label %do.end

do.end:                                           ; preds = %do.body
  ret void
}

; Function Attrs: mustprogress nounwind uwtable
define linkonce_odr dso_local noundef double @_ZN4pbrt3SqrIdEET_S1_(double noundef %v) #2 comdat {
entry:
  %v.addr = alloca double, align 8
  store double %v, ptr %v.addr, align 8
  %0 = load double, ptr %v.addr, align 8
  %1 = load double, ptr %v.addr, align 8
  %mul = fmul double %0, %1
  ret double %mul
}

; Function Attrs: mustprogress uwtable
define linkonce_odr dso_local noundef float @_ZN4pbrt8DistanceIfEENS_12_GLOBAL__N_111TupleLengthIT_E4typeENS_6Point2IS3_EES7_(<2 x float> %p1.coerce, <2 x float> %p2.coerce) #8 comdat {
entry:
  %p1 = alloca %"class.pbrt::Point2.100", align 4
  %p2 = alloca %"class.pbrt::Point2.100", align 4
  %agg.tmp = alloca %"class.pbrt::Vector2.228", align 4
  %agg.tmp2 = alloca %"class.pbrt::Point2.100", align 4
  %coerce.dive = getelementptr inbounds %"class.pbrt::Point2.100", ptr %p1, i32 0, i32 0
  store <2 x float> %p1.coerce, ptr %coerce.dive, align 4
  %coerce.dive1 = getelementptr inbounds %"class.pbrt::Point2.100", ptr %p2, i32 0, i32 0
  store <2 x float> %p2.coerce, ptr %coerce.dive1, align 4
  call void @llvm.memcpy.p0.p0.i64(ptr align 4 %agg.tmp2, ptr align 4 %p2, i64 8, i1 false)
  %coerce.dive3 = getelementptr inbounds %"class.pbrt::Point2.100", ptr %agg.tmp2, i32 0, i32 0
  %0 = load <2 x float>, ptr %coerce.dive3, align 4
  %call = call <2 x float> @_ZNK4pbrt6Point2IfEmiIfEENS_7Vector2IDTmitlfEtlT_EEEENS0_IS4_EE(ptr noundef nonnull align 4 dereferenceable(8) %p1, <2 x float> %0)
  %coerce.dive4 = getelementptr inbounds %"class.pbrt::Vector2.228", ptr %agg.tmp, i32 0, i32 0
  store <2 x float> %call, ptr %coerce.dive4, align 4
  %coerce.dive5 = getelementptr inbounds %"class.pbrt::Vector2.228", ptr %agg.tmp, i32 0, i32 0
  %1 = load <2 x float>, ptr %coerce.dive5, align 4
  %call6 = call noundef float @_ZN4pbrt6LengthIfEENS_12_GLOBAL__N_111TupleLengthIT_E4typeENS_7Vector2IS3_EE(<2 x float> %1)
  ret float %call6
}

; Function Attrs: mustprogress uwtable
define linkonce_odr dso_local void @_ZN4pbrt6Point2IfEC2Eff(ptr noundef nonnull align 4 dereferenceable(8) %this, float noundef %x, float noundef %y) unnamed_addr #1 comdat align 2 {
entry:
  %this.addr = alloca ptr, align 8
  %x.addr = alloca float, align 4
  %y.addr = alloca float, align 4
  store ptr %this, ptr %this.addr, align 8
  store float %x, ptr %x.addr, align 4
  store float %y, ptr %y.addr, align 4
  %this1 = load ptr, ptr %this.addr, align 8
  %0 = load float, ptr %x.addr, align 4
  %1 = load float, ptr %y.addr, align 4
  call void @_ZN4pbrt6Tuple2INS_6Point2EfEC2Eff(ptr noundef nonnull align 4 dereferenceable(8) %this1, float noundef %0, float noundef %1)
  ret void
}

; Function Attrs: mustprogress uwtable
define internal noundef double @_ZN4pbrt5funcsL4diskENS_6Point2IfEE(<2 x float> %p.coerce) #8 {
entry:
  %p = alloca %"class.pbrt::Point2.100", align 4
  %agg.tmp = alloca %"class.pbrt::Point2.100", align 4
  %agg.tmp1 = alloca %"class.pbrt::Point2.100", align 4
  %coerce.dive = getelementptr inbounds %"class.pbrt::Point2.100", ptr %p, i32 0, i32 0
  store <2 x float> %p.coerce, ptr %coerce.dive, align 4
  call void @llvm.memcpy.p0.p0.i64(ptr align 4 %agg.tmp, ptr align 4 %p, i64 8, i1 false)
  call void @_ZN4pbrt6Point2IfEC2Eff(ptr noundef nonnull align 4 dereferenceable(8) %agg.tmp1, float noundef 5.000000e-01, float noundef 5.000000e-01)
  %coerce.dive2 = getelementptr inbounds %"class.pbrt::Point2.100", ptr %agg.tmp, i32 0, i32 0
  %0 = load <2 x float>, ptr %coerce.dive2, align 4
  %coerce.dive3 = getelementptr inbounds %"class.pbrt::Point2.100", ptr %agg.tmp1, i32 0, i32 0
  %1 = load <2 x float>, ptr %coerce.dive3, align 4
  %call = call noundef float @_ZN4pbrt8DistanceIfEENS_12_GLOBAL__N_111TupleLengthIT_E4typeENS_6Point2IS3_EES7_(<2 x float> %0, <2 x float> %1)
  %conv = fpext float %call to double
  %cmp = fcmp olt double %conv, 5.000000e-01
  %call4 = call noundef double @_ZN4pbrt3SqrIdEET_S1_(double noundef 5.000000e-01)
  %mul = fmul double 0x400921FB60000000, %call4
  %div = fdiv double 1.000000e+00, %mul
  %cond = select i1 %cmp, double %div, double 0.000000e+00
  ret double %cond
}