; Function Attrs: mustprogress nofree norecurse nosync nounwind willreturn memory(none) uwtable
define internal noundef double @_ZN4pbrt5funcsL4diskENS_6Point2IfEE(<2 x float> %p.coerce) #16 {
entry:
  %0 = fadd <2 x float> %p.coerce, <float -5.000000e-01, float -5.000000e-01>
  %1 = fmul <2 x float> %0, %0
  %shift = shufflevector <2 x float> %1, <2 x float> poison, <2 x i32> <i32 1, i32 poison>
  %2 = fadd <2 x float> %1, %shift
  %add.i.i.i = extractelement <2 x float> %2, i64 0
  %sqrt.i.i = tail call noundef float @llvm.sqrt.f32(float %add.i.i.i)
  %cmp = fcmp olt float %sqrt.i.i, 5.000000e-01
  %cond = select i1 %cmp, double 0x3FF45F306446F9B4, double 0.000000e+00
  ret double %cond
}